target datalayout = "e-m:e-p270:32:32-p271:32:32-p272:64:64-i64:64-i128:128-f80:128-n8:16:32:64-S128"
target triple = "x86_64-pc-linux-gnu"

%"class.arrow::compute::FunctionOptions" = type { ptr, ptr }
%"class.std::__shared_count" = type { ptr }
%"class.arrow::compute::CumulativeOptions" = type <{ %"class.arrow::compute::FunctionOptions", %"class.std::optional", i8, [7 x i8] }>
%"class.std::optional" = type { %"struct.std::_Optional_base" }
%"struct.std::_Optional_base" = type { %"struct.std::_Optional_payload" }
%"struct.std::_Optional_payload" = type { %"struct.std::_Optional_payload.base", [7 x i8] }
%"struct.std::_Optional_payload.base" = type { %"struct.std::_Optional_payload_base.base" }
%"struct.std::_Optional_payload_base.base" = type <{ %"union.std::_Optional_payload_base<std::shared_ptr<arrow::Scalar>>::_Storage", i8 }>
%"union.std::_Optional_payload_base<std::shared_ptr<arrow::Scalar>>::_Storage" = type { %"class.std::shared_ptr.33" }
%"class.std::shared_ptr.33" = type { %"class.std::__shared_ptr.34" }
%"class.std::__shared_ptr.34" = type { ptr, %"class.std::__shared_count" }
%"struct.std::_Optional_payload_base" = type <{ %"union.std::_Optional_payload_base<std::shared_ptr<arrow::Scalar>>::_Storage", i8, [7 x i8] }>

@_ZN5arrow7compute8internal12_GLOBAL__N_122kCumulativeOptionsTypeE = internal global ptr null, align 8
@_ZTVN5arrow7compute17CumulativeOptionsE = linkonce_odr unnamed_addr constant { [4 x ptr] } { [4 x ptr] [ptr null, ptr @_ZTIN5arrow7compute17CumulativeOptionsE, ptr @_ZN5arrow7compute17CumulativeOptionsD2Ev, ptr @_ZN5arrow7compute17CumulativeOptionsD0Ev] }, comdat, align 8
@_ZTVN5arrow7compute15FunctionOptionsE = linkonce_odr unnamed_addr constant { [4 x ptr] } { [4 x ptr] [ptr null, ptr @_ZTIN5arrow7compute15FunctionOptionsE, ptr @_ZN5arrow4util18EqualityComparableINS_7compute15FunctionOptionsEED2Ev, ptr @_ZN5arrow7compute15FunctionOptionsD0Ev] }, comdat, align 8

; Function Attrs: mustprogress nounwind uwtable
define linkonce_odr void @_ZNSt22_Optional_payload_baseISt10shared_ptrIN5arrow6ScalarEEE8_StorageIS3_Lb0EEC2Ev(ptr noundef nonnull align 8 dereferenceable(16) %0) unnamed_addr #0 comdat align 2 {
  %2 = alloca ptr, align 8
  store ptr %0, ptr %2, align 8, !tbaa !386
  ret void
}

; Function Attrs: mustprogress nounwind uwtable
define linkonce_odr void @_ZNSt22_Optional_payload_baseISt10shared_ptrIN5arrow6ScalarEEEC2Ev(ptr noundef nonnull align 8 dereferenceable(17) %0) unnamed_addr #0 comdat align 2 {
  %2 = alloca ptr, align 8
  store ptr %0, ptr %2, align 8, !tbaa !383
  %3 = load ptr, ptr %2, align 8
  %4 = getelementptr inbounds nuw %"struct.std::_Optional_payload_base", ptr %3, i32 0, i32 0
  call void @_ZNSt22_Optional_payload_baseISt10shared_ptrIN5arrow6ScalarEEE8_StorageIS3_Lb0EEC2Ev(ptr noundef nonnull align 8 dereferenceable(16) %4) #17
  %5 = getelementptr inbounds nuw %"struct.std::_Optional_payload_base", ptr %3, i32 0, i32 1
  store i8 0, ptr %5, align 8, !tbaa !385
  ret void
}

; Function Attrs: mustprogress nounwind uwtable
define linkonce_odr void @_ZNSt17_Optional_payloadISt10shared_ptrIN5arrow6ScalarEELb1ELb0ELb0EEC2Ev(ptr noundef nonnull align 8 dereferenceable(17) %0) unnamed_addr #0 comdat align 2 {
  %2 = alloca ptr, align 8
  store ptr %0, ptr %2, align 8, !tbaa !381
  %3 = load ptr, ptr %2, align 8
  call void @_ZNSt22_Optional_payload_baseISt10shared_ptrIN5arrow6ScalarEEEC2Ev(ptr noundef nonnull align 8 dereferenceable(17) %3) #17
  ret void
}

; Function Attrs: mustprogress nounwind uwtable
define linkonce_odr void @_ZNSt17_Optional_payloadISt10shared_ptrIN5arrow6ScalarEELb0ELb0ELb0EEC2Ev(ptr noundef nonnull align 8 dereferenceable(17) %0) unnamed_addr #0 comdat align 2 {
  %2 = alloca ptr, align 8
  store ptr %0, ptr %2, align 8, !tbaa !379
  %3 = load ptr, ptr %2, align 8
  call void @_ZNSt17_Optional_payloadISt10shared_ptrIN5arrow6ScalarEELb1ELb0ELb0EEC2Ev(ptr noundef nonnull align 8 dereferenceable(17) %3) #17
  ret void
}

; Function Attrs: mustprogress nounwind uwtable
define linkonce_odr void @_ZNSt14_Optional_baseISt10shared_ptrIN5arrow6ScalarEELb0ELb0EEC2Ev(ptr noundef nonnull align 8 dereferenceable(24) %0) unnamed_addr #0 comdat align 2 {
  %2 = alloca ptr, align 8
  store ptr %0, ptr %2, align 8, !tbaa !377
  %3 = load ptr, ptr %2, align 8
  %4 = getelementptr inbounds nuw %"struct.std::_Optional_base", ptr %3, i32 0, i32 0
  call void @_ZNSt17_Optional_payloadISt10shared_ptrIN5arrow6ScalarEELb0ELb0ELb0EEC2Ev(ptr noundef nonnull align 8 dereferenceable(17) %4) #17
  ret void
}

; Function Attrs: mustprogress nounwind uwtable
define linkonce_odr void @_ZNSt8optionalISt10shared_ptrIN5arrow6ScalarEEEC2Ev(ptr noundef nonnull align 8 dereferenceable(24) %0) unnamed_addr #0 comdat align 2 {
  %2 = alloca ptr, align 8
  store ptr %0, ptr %2, align 8, !tbaa !235
  %3 = load ptr, ptr %2, align 8
  call void @_ZNSt14_Optional_baseISt10shared_ptrIN5arrow6ScalarEELb0ELb0EEC2Ev(ptr noundef nonnull align 8 dereferenceable(24) %3) #17
  ret void
}

; Function Attrs: mustprogress nounwind uwtable
define linkonce_odr void @_ZN5arrow7compute15FunctionOptionsC2EPKNS0_19FunctionOptionsTypeE(ptr noundef nonnull align 8 dereferenceable(16) %0, ptr noundef %1) unnamed_addr #0 comdat align 2 {
  %3 = alloca ptr, align 8
  %4 = alloca ptr, align 8
  store ptr %0, ptr %3, align 8, !tbaa !170
  store ptr %1, ptr %4, align 8, !tbaa !53
  %5 = load ptr, ptr %3, align 8
  store ptr getelementptr inbounds inrange(-16, 16) ({ [4 x ptr] }, ptr @_ZTVN5arrow7compute15FunctionOptionsE, i32 0, i32 0, i32 2), ptr %5, align 8, !tbaa !165
  %6 = getelementptr inbounds nuw %"class.arrow::compute::FunctionOptions", ptr %5, i32 0, i32 1
  %7 = load ptr, ptr %4, align 8, !tbaa !53
  store ptr %7, ptr %6, align 8, !tbaa !172
  ret void
}

; Function Attrs: mustprogress uwtable
define void @_ZN5arrow7compute17CumulativeOptionsC2Eb(ptr noundef nonnull align 8 dereferenceable(41) %0, i1 noundef zeroext %1) unnamed_addr #2 align 2 {
  %3 = alloca ptr, align 8
  %4 = alloca i8, align 1
  store ptr %0, ptr %3, align 8, !tbaa !226
  %5 = zext i1 %1 to i8
  store i8 %5, ptr %4, align 1, !tbaa !175
  %6 = load ptr, ptr %3, align 8
  %7 = load ptr, ptr @_ZN5arrow7compute8internal12_GLOBAL__N_122kCumulativeOptionsTypeE, align 8, !tbaa !53
  call void @_ZN5arrow7compute15FunctionOptionsC2EPKNS0_19FunctionOptionsTypeE(ptr noundef nonnull align 8 dereferenceable(16) %6, ptr noundef %7)
  store ptr getelementptr inbounds inrange(-16, 16) ({ [4 x ptr] }, ptr @_ZTVN5arrow7compute17CumulativeOptionsE, i32 0, i32 0, i32 2), ptr %6, align 8, !tbaa !165
  %8 = getelementptr inbounds nuw %"class.arrow::compute::CumulativeOptions", ptr %6, i32 0, i32 1
  call void @_ZNSt8optionalISt10shared_ptrIN5arrow6ScalarEEEC2Ev(ptr noundef nonnull align 8 dereferenceable(24) %8) #17
  %9 = getelementptr inbounds nuw %"class.arrow::compute::CumulativeOptions", ptr %6, i32 0, i32 2
  %10 = load i8, ptr %4, align 1, !tbaa !175, !range !177, !noundef !178
  %11 = trunc i8 %10 to i1
  %12 = zext i1 %11 to i8
  store i8 %12, ptr %9, align 8, !tbaa !228
  ret void
}