; Function Attrs: mustprogress nofree norecurse nosync nounwind willreturn memory(read, argmem: write, inaccessiblemem: none) uwtable
define void @_ZN5arrow7compute17CumulativeOptionsC2Eb(ptr noundef nonnull writeonly align 8 captures(none) dereferenceable(41) initializes((0, 16), (32, 33), (40, 41)) %0, i1 noundef zeroext %1) unnamed_addr #2 align 2 {
  %3 = zext i1 %1 to i8
  %4 = load ptr, ptr @_ZN5arrow7compute8internal12_GLOBAL__N_122kCumulativeOptionsTypeE, align 8, !tbaa !32
  %5 = getelementptr inbounds nuw i8, ptr %0, i64 8
  store ptr %4, ptr %5, align 8, !tbaa !35
  store ptr getelementptr inbounds nuw inrange(-16, 16) (i8, ptr @_ZTVN5arrow7compute17CumulativeOptionsE, i64 16), ptr %0, align 8, !tbaa !37
  %6 = getelementptr inbounds nuw i8, ptr %0, i64 32
  store i8 0, ptr %6, align 8, !tbaa !78
  %7 = getelementptr inbounds nuw i8, ptr %0, i64 40
  store i8 %3, ptr %7, align 8, !tbaa !80
  ret void
}